target datalayout = "e-m:e-p270:32:32-p271:32:32-p272:64:64-i64:64-i128:128-f80:128-n8:16:32:64-S128"
target triple = "x86_64-pc-linux-gnu"

%struct._object = type { %union.anon.26, ptr }
%union.anon.26 = type { i64 }
%struct.PyVarObject = type { %struct._object, i64 }
%struct.PyCompilerFlags = type { i32, i32 }
%struct._PyCompiler = type { ptr, ptr, %struct._PyFutureFeatures, %struct.PyCompilerFlags, i32, i32, ptr, ptr, ptr, i8 }
%struct._PyFutureFeatures = type { i32, %struct._Py_SourceLocation }
%struct._Py_SourceLocation = type { i32, i32, i32, i32 }
%struct.compiler_unit = type { ptr, i32, ptr, ptr, ptr, ptr, i32, i32, [21 x %struct._PyCompile_FBlockInfo], %struct._PyCompile_CodeUnitMetadata }
%struct._PyCompile_FBlockInfo = type { i32, %struct._PyJumpTargetLabel, %struct._Py_SourceLocation, %struct._PyJumpTargetLabel, ptr }
%struct._PyJumpTargetLabel = type { i32 }
%struct._PyCompile_CodeUnitMetadata = type { ptr, ptr, ptr, ptr, ptr, ptr, ptr, ptr, i64, i64, i64, i32 }
%struct.anon.27 = type { i32, i32 }
%struct._symtable_entry = type { %struct._object, ptr, ptr, ptr, ptr, ptr, ptr, ptr, i32, ptr, i32, i8, i32, i16, i32, %struct._Py_SourceLocation, ptr, ptr }
%struct.PyCodeObject = type { %struct.PyVarObject, ptr, ptr, ptr, i32, i32, i32, i32, i32, i32, i32, i32, i32, i32, i32, i32, ptr, ptr, ptr, ptr, ptr, ptr, ptr, ptr, ptr, i64, ptr, i64, i32, ptr, [1 x i8] }

@.str.5 = private unnamed_addr constant [10 x i8] c"__class__\00", align 1
@.str.6 = private unnamed_addr constant [14 x i8] c"__classdict__\00", align 1
@PyExc_SystemError = external global ptr, align 8
@.str.7 = private unnamed_addr constant [100 x i8] c"_PyST_GetScope(name=%R) failed: unknown scope in unit %S (%R); symbols: %R; locals: %R; globals: %R\00", align 1
@.str.8 = private unnamed_addr constant [83 x i8] c"compiler_lookup_arg(name=%R) with reftype=%d failed in %S; freevars of code %S: %R\00", align 1

; Function Attrs: alwaysinline nounwind uwtable
define internal i32 @_Py_IsImmortal(ptr noundef %0) #4 {
  %2 = alloca ptr, align 8
  store ptr %0, ptr %2, align 8, !tbaa !32
  %3 = load ptr, ptr %2, align 8, !tbaa !32
  %4 = getelementptr inbounds nuw %struct._object, ptr %3, i32 0, i32 0
  %5 = getelementptr inbounds nuw %struct.anon.27, ptr %4, i32 0, i32 0
  %6 = load i32, ptr %5, align 8, !tbaa !11
  %7 = icmp slt i32 %6, 0
  %8 = zext i1 %7 to i32
  ret i32 %8
}

; Function Attrs: alwaysinline nounwind uwtable
define internal void @Py_DECREF(ptr noundef %0) #4 {
  %2 = alloca ptr, align 8
  store ptr %0, ptr %2, align 8, !tbaa !32
  %3 = load ptr, ptr %2, align 8, !tbaa !32
  %4 = call i32 @_Py_IsImmortal(ptr noundef %3)
  %5 = icmp ne i32 %4, 0
  br i1 %5, label %6, label %7

6:                                                ; preds = %1
  br label %16

7:                                                ; preds = %1
  %8 = load ptr, ptr %2, align 8, !tbaa !32
  %9 = getelementptr inbounds nuw %struct._object, ptr %8, i32 0, i32 0
  %10 = getelementptr inbounds nuw %struct.anon.27, ptr %9, i32 0, i32 0
  %11 = load i32, ptr %10, align 8, !tbaa !11
  %12 = add i32 %11, -1
  store i32 %12, ptr %10, align 8, !tbaa !11
  %13 = icmp eq i32 %12, 0
  br i1 %13, label %14, label %16

14:                                               ; preds = %7
  %15 = load ptr, ptr %2, align 8, !tbaa !32
  call void @_Py_Dealloc(ptr noundef %15)
  br label %16

16:                                               ; preds = %6, %14, %7
  ret void
}

; Function Attrs: inlinehint nounwind uwtable
define internal void @Py_XDECREF(ptr noundef %0) #3 {
  %2 = alloca ptr, align 8
  store ptr %0, ptr %2, align 8, !tbaa !32
  %3 = load ptr, ptr %2, align 8, !tbaa !32
  %4 = icmp ne ptr %3, null
  br i1 %4, label %5, label %7

5:                                                ; preds = %1
  %6 = load ptr, ptr %2, align 8, !tbaa !32
  call void @Py_DECREF(ptr noundef %6)
  br label %7

7:                                                ; preds = %5, %1
  ret void
}

; Function Attrs: nounwind uwtable
define internal i32 @dict_lookup_arg(ptr noundef %0, ptr noundef %1) #0 {
  %3 = alloca i32, align 4
  %4 = alloca ptr, align 8
  %5 = alloca ptr, align 8
  %6 = alloca ptr, align 8
  %7 = alloca i32, align 4
  store ptr %0, ptr %4, align 8, !tbaa !32
  store ptr %1, ptr %5, align 8, !tbaa !32
  call void @llvm.lifetime.start.p0(i64 8, ptr %6) #8
  %8 = load ptr, ptr %4, align 8, !tbaa !32
  %9 = load ptr, ptr %5, align 8, !tbaa !32
  %10 = call ptr @PyDict_GetItemWithError(ptr noundef %8, ptr noundef %9)
  store ptr %10, ptr %6, align 8, !tbaa !32
  %11 = load ptr, ptr %6, align 8, !tbaa !32
  %12 = icmp eq ptr %11, null
  br i1 %12, label %13, label %14

13:                                               ; preds = %2
  store i32 -1, ptr %3, align 4
  store i32 1, ptr %7, align 4
  br label %18

14:                                               ; preds = %2
  %15 = load ptr, ptr %6, align 8, !tbaa !32
  %16 = call i64 @PyLong_AsLong(ptr noundef %15)
  %17 = trunc i64 %16 to i32
  store i32 %17, ptr %3, align 4
  store i32 1, ptr %7, align 4
  br label %18

18:                                               ; preds = %14, %13
  call void @llvm.lifetime.end.p0(i64 8, ptr %6) #8
  %19 = load i32, ptr %3, align 4
  ret i32 %19
}

; Function Attrs: nounwind uwtable
define hidden i32 @_PyCompile_GetRefType(ptr noundef %0, ptr noundef %1) #0 {
  %3 = alloca i32, align 4
  %4 = alloca ptr, align 8
  %5 = alloca ptr, align 8
  %6 = alloca ptr, align 8
  %7 = alloca i32, align 4
  %8 = alloca i32, align 4
  store ptr %0, ptr %4, align 8, !tbaa !4
  store ptr %1, ptr %5, align 8, !tbaa !32
  %9 = load ptr, ptr %4, align 8, !tbaa !4
  %10 = getelementptr inbounds nuw %struct._PyCompiler, ptr %9, i32 0, i32 7
  %11 = load ptr, ptr %10, align 8, !tbaa !48
  %12 = getelementptr inbounds nuw %struct.compiler_unit, ptr %11, i32 0, i32 1
  %13 = load i32, ptr %12, align 8, !tbaa !34
  %14 = icmp eq i32 %13, 1
  br i1 %14, label %15, label %24

15:                                               ; preds = %2
  %16 = load ptr, ptr %5, align 8, !tbaa !32
  %17 = call i32 @_PyUnicode_EqualToASCIIString(ptr noundef %16, ptr noundef @.str.5)
  %18 = icmp ne i32 %17, 0
  br i1 %18, label %23, label %19

19:                                               ; preds = %15
  %20 = load ptr, ptr %5, align 8, !tbaa !32
  %21 = call i32 @_PyUnicode_EqualToASCIIString(ptr noundef %20, ptr noundef @.str.6)
  %22 = icmp ne i32 %21, 0
  br i1 %22, label %23, label %24

23:                                               ; preds = %19, %15
  store i32 5, ptr %3, align 4
  br label %66

24:                                               ; preds = %19, %2
  call void @llvm.lifetime.start.p0(i64 8, ptr %6) #8
  %25 = load ptr, ptr %4, align 8, !tbaa !4
  %26 = getelementptr inbounds nuw %struct._PyCompiler, ptr %25, i32 0, i32 7
  %27 = load ptr, ptr %26, align 8, !tbaa !48
  %28 = getelementptr inbounds nuw %struct.compiler_unit, ptr %27, i32 0, i32 0
  %29 = load ptr, ptr %28, align 8, !tbaa !56
  store ptr %29, ptr %6, align 8, !tbaa !78
  call void @llvm.lifetime.start.p0(i64 4, ptr %7) #8
  %30 = load ptr, ptr %6, align 8, !tbaa !78
  %31 = load ptr, ptr %5, align 8, !tbaa !32
  %32 = call i32 @_PyST_GetScope(ptr noundef %30, ptr noundef %31)
  store i32 %32, ptr %7, align 4, !tbaa !50
  %33 = load i32, ptr %7, align 4, !tbaa !50
  %34 = icmp eq i32 %33, 0
  br i1 %34, label %35, label %63

35:                                               ; preds = %24
  %36 = load ptr, ptr @PyExc_SystemError, align 8, !tbaa !32
  %37 = load ptr, ptr %5, align 8, !tbaa !32
  %38 = load ptr, ptr %4, align 8, !tbaa !4
  %39 = getelementptr inbounds nuw %struct._PyCompiler, ptr %38, i32 0, i32 7
  %40 = load ptr, ptr %39, align 8, !tbaa !48
  %41 = getelementptr inbounds nuw %struct.compiler_unit, ptr %40, i32 0, i32 9
  %42 = getelementptr inbounds nuw %struct._PyCompile_CodeUnitMetadata, ptr %41, i32 0, i32 0
  %43 = load ptr, ptr %42, align 8, !tbaa !57
  %44 = load ptr, ptr %6, align 8, !tbaa !78
  %45 = getelementptr inbounds nuw %struct._symtable_entry, ptr %44, i32 0, i32 1
  %46 = load ptr, ptr %45, align 8, !tbaa !98
  %47 = load ptr, ptr %6, align 8, !tbaa !78
  %48 = getelementptr inbounds nuw %struct._symtable_entry, ptr %47, i32 0, i32 2
  %49 = load ptr, ptr %48, align 8, !tbaa !62
  %50 = load ptr, ptr %4, align 8, !tbaa !4
  %51 = getelementptr inbounds nuw %struct._PyCompiler, ptr %50, i32 0, i32 7
  %52 = load ptr, ptr %51, align 8, !tbaa !48
  %53 = getelementptr inbounds nuw %struct.compiler_unit, ptr %52, i32 0, i32 9
  %54 = getelementptr inbounds nuw %struct._PyCompile_CodeUnitMetadata, ptr %53, i32 0, i32 4
  %55 = load ptr, ptr %54, align 8, !tbaa !61
  %56 = load ptr, ptr %4, align 8, !tbaa !4
  %57 = getelementptr inbounds nuw %struct._PyCompiler, ptr %56, i32 0, i32 7
  %58 = load ptr, ptr %57, align 8, !tbaa !48
  %59 = getelementptr inbounds nuw %struct.compiler_unit, ptr %58, i32 0, i32 9
  %60 = getelementptr inbounds nuw %struct._PyCompile_CodeUnitMetadata, ptr %59, i32 0, i32 3
  %61 = load ptr, ptr %60, align 8, !tbaa !69
  %62 = call ptr (ptr, ptr, ...) @PyErr_Format(ptr noundef %36, ptr noundef @.str.7, ptr noundef %37, ptr noundef %43, ptr noundef %46, ptr noundef %49, ptr noundef %55, ptr noundef %61)
  store i32 -1, ptr %3, align 4
  store i32 1, ptr %8, align 4
  br label %65

63:                                               ; preds = %24
  %64 = load i32, ptr %7, align 4, !tbaa !50
  store i32 %64, ptr %3, align 4
  store i32 1, ptr %8, align 4
  br label %65

65:                                               ; preds = %63, %35
  call void @llvm.lifetime.end.p0(i64 4, ptr %7) #8
  call void @llvm.lifetime.end.p0(i64 8, ptr %6) #8
  br label %66

66:                                               ; preds = %65, %23
  %67 = load i32, ptr %3, align 4
  ret i32 %67
}

; Function Attrs: nounwind uwtable
define hidden i32 @_PyCompile_LookupArg(ptr noundef %0, ptr noundef %1, ptr noundef %2) #0 {
  %4 = alloca i32, align 4
  %5 = alloca ptr, align 8
  %6 = alloca ptr, align 8
  %7 = alloca ptr, align 8
  %8 = alloca i32, align 4
  %9 = alloca i32, align 4
  %10 = alloca i32, align 4
  %11 = alloca ptr, align 8
  store ptr %0, ptr %5, align 8, !tbaa !4
  store ptr %1, ptr %6, align 8, !tbaa !99
  store ptr %2, ptr %7, align 8, !tbaa !32
  call void @llvm.lifetime.start.p0(i64 4, ptr %8) #8
  %12 = load ptr, ptr %5, align 8, !tbaa !4
  %13 = load ptr, ptr %7, align 8, !tbaa !32
  %14 = call i32 @_PyCompile_GetRefType(ptr noundef %12, ptr noundef %13)
  store i32 %14, ptr %8, align 4, !tbaa !50
  %15 = load i32, ptr %8, align 4, !tbaa !50
  %16 = icmp eq i32 %15, -1
  br i1 %16, label %17, label %18

17:                                               ; preds = %3
  store i32 -1, ptr %4, align 4
  store i32 1, ptr %9, align 4
  br label %70

18:                                               ; preds = %3
  call void @llvm.lifetime.start.p0(i64 4, ptr %10) #8
  %19 = load i32, ptr %8, align 4, !tbaa !50
  %20 = icmp eq i32 %19, 5
  br i1 %20, label %21, label %30

21:                                               ; preds = %18
  %22 = load ptr, ptr %5, align 8, !tbaa !4
  %23 = getelementptr inbounds nuw %struct._PyCompiler, ptr %22, i32 0, i32 7
  %24 = load ptr, ptr %23, align 8, !tbaa !48
  %25 = getelementptr inbounds nuw %struct.compiler_unit, ptr %24, i32 0, i32 9
  %26 = getelementptr inbounds nuw %struct._PyCompile_CodeUnitMetadata, ptr %25, i32 0, i32 5
  %27 = load ptr, ptr %26, align 8, !tbaa !63
  %28 = load ptr, ptr %7, align 8, !tbaa !32
  %29 = call i32 @dict_lookup_arg(ptr noundef %27, ptr noundef %28)
  store i32 %29, ptr %10, align 4, !tbaa !50
  br label %39

30:                                               ; preds = %18
  %31 = load ptr, ptr %5, align 8, !tbaa !4
  %32 = getelementptr inbounds nuw %struct._PyCompiler, ptr %31, i32 0, i32 7
  %33 = load ptr, ptr %32, align 8, !tbaa !48
  %34 = getelementptr inbounds nuw %struct.compiler_unit, ptr %33, i32 0, i32 9
  %35 = getelementptr inbounds nuw %struct._PyCompile_CodeUnitMetadata, ptr %34, i32 0, i32 6
  %36 = load ptr, ptr %35, align 8, !tbaa !64
  %37 = load ptr, ptr %7, align 8, !tbaa !32
  %38 = call i32 @dict_lookup_arg(ptr noundef %36, ptr noundef %37)
  store i32 %38, ptr %10, align 4, !tbaa !50
  br label %39

39:                                               ; preds = %30, %21
  %40 = load i32, ptr %10, align 4, !tbaa !50
  %41 = icmp eq i32 %40, -1
  br i1 %41, label %42, label %67

42:                                               ; preds = %39
  %43 = call ptr @PyErr_Occurred()
  %44 = icmp ne ptr %43, null
  br i1 %44, label %67, label %45

45:                                               ; preds = %42
  call void @llvm.lifetime.start.p0(i64 8, ptr %11) #8
  %46 = load ptr, ptr %6, align 8, !tbaa !99
  %47 = call ptr @_PyCode_GetFreevars(ptr noundef %46)
  store ptr %47, ptr %11, align 8, !tbaa !32
  %48 = load ptr, ptr %11, align 8, !tbaa !32
  %49 = icmp eq ptr %48, null
  br i1 %49, label %50, label %51

50:                                               ; preds = %45
  call void @PyErr_Clear()
  br label %51

51:                                               ; preds = %50, %45
  %52 = load ptr, ptr @PyExc_SystemError, align 8, !tbaa !32
  %53 = load ptr, ptr %7, align 8, !tbaa !32
  %54 = load i32, ptr %8, align 4, !tbaa !50
  %55 = load ptr, ptr %5, align 8, !tbaa !4
  %56 = getelementptr inbounds nuw %struct._PyCompiler, ptr %55, i32 0, i32 7
  %57 = load ptr, ptr %56, align 8, !tbaa !48
  %58 = getelementptr inbounds nuw %struct.compiler_unit, ptr %57, i32 0, i32 9
  %59 = getelementptr inbounds nuw %struct._PyCompile_CodeUnitMetadata, ptr %58, i32 0, i32 0
  %60 = load ptr, ptr %59, align 8, !tbaa !57
  %61 = load ptr, ptr %6, align 8, !tbaa !99
  %62 = getelementptr inbounds nuw %struct.PyCodeObject, ptr %61, i32 0, i32 19
  %63 = load ptr, ptr %62, align 8, !tbaa !101
  %64 = load ptr, ptr %11, align 8, !tbaa !32
  %65 = call ptr (ptr, ptr, ...) @PyErr_Format(ptr noundef %52, ptr noundef @.str.8, ptr noundef %53, i32 noundef %54, ptr noundef %60, ptr noundef %63, ptr noundef %64)
  %66 = load ptr, ptr %11, align 8, !tbaa !32
  call void @Py_XDECREF(ptr noundef %66)
  store i32 -1, ptr %4, align 4
  store i32 1, ptr %9, align 4
  call void @llvm.lifetime.end.p0(i64 8, ptr %11) #8
  br label %69

67:                                               ; preds = %42, %39
  %68 = load i32, ptr %10, align 4, !tbaa !50
  store i32 %68, ptr %4, align 4
  store i32 1, ptr %9, align 4
  br label %69

69:                                               ; preds = %67, %51
  call void @llvm.lifetime.end.p0(i64 4, ptr %10) #8
  br label %70

70:                                               ; preds = %69, %17
  call void @llvm.lifetime.end.p0(i64 4, ptr %8) #8
  %71 = load i32, ptr %4, align 4
  ret i32 %71
}