; Function Attrs: nounwind uwtable
define hidden i32 @_PyCompile_LookupArg(ptr noundef readonly captures(none) %0, ptr noundef %1, ptr noundef %2) local_unnamed_addr #0 {
  %4 = getelementptr inbounds nuw i8, ptr %0, i64 64
  %5 = load ptr, ptr %4, align 8, !tbaa !42
  %6 = getelementptr inbounds nuw i8, ptr %5, i64 8
  %7 = load i32, ptr %6, align 8, !tbaa !29
  %8 = icmp eq i32 %7, 1
  br i1 %8, label %9, label %13

9:                                                ; preds = %3
  %10 = tail call i32 @_PyUnicode_EqualToASCIIString(ptr noundef %2, ptr noundef nonnull @.str.5) #11
  %.not.i = icmp eq i32 %10, 0
  br i1 %.not.i, label %11, label %_PyCompile_GetRefType.exit.thread

11:                                               ; preds = %9
  %12 = tail call i32 @_PyUnicode_EqualToASCIIString(ptr noundef %2, ptr noundef nonnull @.str.6) #11
  %.not15.i = icmp eq i32 %12, 0
  br i1 %.not15.i, label %._crit_edge.i, label %_PyCompile_GetRefType.exit.thread

._crit_edge.i:                                    ; preds = %11
  %.pre.i = load ptr, ptr %4, align 8, !tbaa !42
  br label %13

13:                                               ; preds = %._crit_edge.i, %3
  %14 = phi ptr [ %.pre.i, %._crit_edge.i ], [ %5, %3 ]
  %15 = load ptr, ptr %14, align 8, !tbaa !48
  %16 = tail call i32 @_PyST_GetScope(ptr noundef %15, ptr noundef %2) #11
  switch i32 %16, label %35 [
    i32 0, label %_PyCompile_GetRefType.exit.thread27
    i32 -1, label %Py_XDECREF.exit
    i32 5, label %_PyCompile_GetRefType.exit.thread
  ]

_PyCompile_GetRefType.exit.thread27:              ; preds = %13
  %17 = load ptr, ptr @PyExc_SystemError, align 8, !tbaa !28
  %18 = load ptr, ptr %4, align 8, !tbaa !42
  %19 = getelementptr inbounds nuw i8, ptr %18, i64 896
  %20 = load ptr, ptr %19, align 8, !tbaa !49
  %21 = getelementptr inbounds nuw i8, ptr %15, i64 16
  %22 = load ptr, ptr %21, align 8, !tbaa !78
  %23 = getelementptr inbounds nuw i8, ptr %15, i64 24
  %24 = load ptr, ptr %23, align 8, !tbaa !55
  %25 = getelementptr inbounds nuw i8, ptr %18, i64 928
  %26 = load ptr, ptr %25, align 8, !tbaa !54
  %27 = getelementptr inbounds nuw i8, ptr %18, i64 920
  %28 = load ptr, ptr %27, align 8, !tbaa !62
  %29 = tail call ptr (ptr, ptr, ...) @PyErr_Format(ptr noundef %17, ptr noundef nonnull @.str.7, ptr noundef %2, ptr noundef %20, ptr noundef %22, ptr noundef %24, ptr noundef %26, ptr noundef %28) #11
  br label %Py_XDECREF.exit

_PyCompile_GetRefType.exit.thread:                ; preds = %13, %9, %11
  %30 = load ptr, ptr %4, align 8, !tbaa !42
  %31 = getelementptr inbounds nuw i8, ptr %30, i64 936
  %32 = load ptr, ptr %31, align 8, !tbaa !56
  %33 = tail call ptr @PyDict_GetItemWithError(ptr noundef %32, ptr noundef %2) #11
  %34 = icmp eq ptr %33, null
  br i1 %34, label %dict_lookup_arg.exit.thread, label %dict_lookup_arg.exit

35:                                               ; preds = %13
  %36 = load ptr, ptr %4, align 8, !tbaa !42
  %37 = getelementptr inbounds nuw i8, ptr %36, i64 944
  %38 = load ptr, ptr %37, align 8, !tbaa !57
  %39 = tail call ptr @PyDict_GetItemWithError(ptr noundef %38, ptr noundef %2) #11
  %40 = icmp eq ptr %39, null
  br i1 %40, label %dict_lookup_arg.exit.thread, label %dict_lookup_arg.exit

dict_lookup_arg.exit:                             ; preds = %35, %_PyCompile_GetRefType.exit.thread
  %.sink = phi ptr [ %33, %_PyCompile_GetRefType.exit.thread ], [ %39, %35 ]
  %.0.i25 = phi i32 [ 5, %_PyCompile_GetRefType.exit.thread ], [ %16, %35 ]
  %41 = tail call i64 @PyLong_AsLong(ptr noundef nonnull %.sink) #11
  %.018 = trunc i64 %41 to i32
  %42 = icmp eq i32 %.018, -1
  br i1 %42, label %dict_lookup_arg.exit.thread, label %Py_XDECREF.exit

dict_lookup_arg.exit.thread:                      ; preds = %35, %_PyCompile_GetRefType.exit.thread, %dict_lookup_arg.exit
  %.0.i2531 = phi i32 [ %.0.i25, %dict_lookup_arg.exit ], [ %16, %35 ], [ 5, %_PyCompile_GetRefType.exit.thread ]
  %43 = tail call ptr @PyErr_Occurred() #11
  %.not = icmp eq ptr %43, null
  br i1 %.not, label %44, label %Py_XDECREF.exit

44:                                               ; preds = %dict_lookup_arg.exit.thread
  %45 = tail call ptr @_PyCode_GetFreevars(ptr noundef %1) #11
  %46 = icmp eq ptr %45, null
  br i1 %46, label %47, label %.critedge

47:                                               ; preds = %44
  tail call void @PyErr_Clear() #11
  %48 = load ptr, ptr @PyExc_SystemError, align 8, !tbaa !28
  %49 = load ptr, ptr %4, align 8, !tbaa !42
  %50 = getelementptr inbounds nuw i8, ptr %49, i64 896
  %51 = load ptr, ptr %50, align 8, !tbaa !49
  %52 = getelementptr inbounds nuw i8, ptr %1, i64 120
  %53 = load ptr, ptr %52, align 8, !tbaa !79
  %54 = tail call ptr (ptr, ptr, ...) @PyErr_Format(ptr noundef %48, ptr noundef nonnull @.str.8, ptr noundef %2, i32 noundef %.0.i2531, ptr noundef %51, ptr noundef %53, ptr noundef null) #11
  br label %Py_XDECREF.exit

.critedge:                                        ; preds = %44
  %55 = load ptr, ptr @PyExc_SystemError, align 8, !tbaa !28
  %56 = load ptr, ptr %4, align 8, !tbaa !42
  %57 = getelementptr inbounds nuw i8, ptr %56, i64 896
  %58 = load ptr, ptr %57, align 8, !tbaa !49
  %59 = getelementptr inbounds nuw i8, ptr %1, i64 120
  %60 = load ptr, ptr %59, align 8, !tbaa !79
  %61 = tail call ptr (ptr, ptr, ...) @PyErr_Format(ptr noundef %55, ptr noundef nonnull @.str.8, ptr noundef %2, i32 noundef %.0.i2531, ptr noundef %58, ptr noundef %60, ptr noundef nonnull %45) #11
  %62 = load i32, ptr %45, align 8, !tbaa !4
  %.not.i.i = icmp sgt i32 %62, -1
  br i1 %.not.i.i, label %63, label %Py_XDECREF.exit

63:                                               ; preds = %.critedge
  %64 = add nsw i32 %62, -1
  store i32 %64, ptr %45, align 8, !tbaa !4
  %65 = icmp eq i32 %64, 0
  br i1 %65, label %66, label %Py_XDECREF.exit

66:                                               ; preds = %63
  tail call void @_Py_Dealloc(ptr noundef nonnull %45) #11
  br label %Py_XDECREF.exit

Py_XDECREF.exit:                                  ; preds = %47, %13, %66, %63, %.critedge, %_PyCompile_GetRefType.exit.thread27, %dict_lookup_arg.exit.thread, %dict_lookup_arg.exit
  %.0 = phi i32 [ -1, %dict_lookup_arg.exit.thread ], [ %.018, %dict_lookup_arg.exit ], [ -1, %_PyCompile_GetRefType.exit.thread27 ], [ -1, %47 ], [ -1, %.critedge ], [ -1, %63 ], [ -1, %66 ], [ %16, %13 ]
  ret i32 %.0
}